target datalayout = "e-m:e-p270:32:32-p271:32:32-p272:64:64-i64:64-i128:128-f80:128-n8:16:32:64-S128"
target triple = "x86_64-unknown-linux-gnu"

%struct.MemoryRegionOps = type { ptr, ptr, ptr, ptr, i32, %struct.anon, %struct.anon.2 }
%struct.anon = type { i32, i32, i8, ptr }
%struct.anon.2 = type { i32, i32, i8 }
%struct.MemoryRegion = type { %struct.Object, i8, i8, i8, i8, i8, i8, i8, i8, i8, i8, ptr, ptr, ptr, ptr, ptr, ptr, i32, i128, i64, ptr, i64, i8, i8, i8, i8, i8, ptr, i64, i32, %union.anon, %union.anon.0, %union.anon.1, ptr, i32, ptr, ptr, i8 }
%struct.Object = type { ptr, ptr, ptr, i32, ptr }
%union.anon = type { %struct.QTailQLink }
%struct.QTailQLink = type { ptr, ptr }
%union.anon.0 = type { %struct.QTailQLink }
%union.anon.1 = type { %struct.QTailQLink }
%struct.PCIVGAState = type { %struct.PCIDevice, %struct.VGACommonState, i32, %struct.qemu_edid_info, %struct.MemoryRegion, [4 x %struct.MemoryRegion], [384 x i8] }
%struct.PCIDevice = type { %struct.DeviceState, i8, i8, ptr, ptr, ptr, ptr, ptr, i32, %struct.PCIReqIDCache, [64 x i8], [7 x %struct.PCIIORegion], %struct.AddressSpace, %struct.MemoryRegion, %struct.MemoryRegion, ptr, ptr, [3 x ptr], i8, i8, i32, i8, i32, ptr, ptr, ptr, ptr, ptr, ptr, %struct.MemoryRegion, %struct.MemoryRegion, %struct.MemoryRegion, ptr, i8, i32, i8, %struct.PCIExpressDevice, ptr, ptr, i32, i8, %struct.MemoryRegion, i32, ptr, ptr, ptr, ptr, ptr, i32 }
%struct.DeviceState = type { %struct.Object, ptr, ptr, i8, i8, i64, ptr, i32, i8, ptr, %struct.NamedGPIOListHead, %struct.NamedClockListHead, %struct.BusStateHead, i32, i32, i32, %struct.ResettableState, ptr, %struct.MemReentrancyGuard }
%struct.NamedGPIOListHead = type { ptr }
%struct.NamedClockListHead = type { ptr }
%struct.BusStateHead = type { ptr }
%struct.ResettableState = type { i32, i8, i8 }
%struct.MemReentrancyGuard = type { i8 }
%struct.PCIReqIDCache = type { ptr, i32 }
%struct.PCIIORegion = type { i64, i64, i8, ptr, ptr }
%struct.AddressSpace = type { %struct.rcu_head, ptr, ptr, ptr, i32, i32, ptr, %union.anon.3, %union.anon.4 }
%struct.rcu_head = type { ptr, ptr }
%union.anon.3 = type { %struct.QTailQLink }
%union.anon.4 = type { %struct.QTailQLink }
%struct.PCIExpressDevice = type { i8, i8, i8, i16, %struct.PCIEAERLog, i16, i16, i16, %struct.PCIESriovPF, %struct.PCIESriovVF }
%struct.PCIEAERLog = type { i16, i16, ptr }
%struct.PCIESriovPF = type { i16, [7 x i8], ptr, ptr }
%struct.PCIESriovVF = type { ptr, i16 }
%struct.VGACommonState = type { ptr, ptr, %struct.MemoryRegion, i32, i32, i32, i32, i32, i8, %struct.MemoryRegion, i8, [256 x i8], [256 x i8], i8, [256 x i8], i8, [21 x i8], i32, i8, [256 x i8], i8, i8, i8, i8, i8, i8, i8, i8, [3 x i8], i32, [768 x i8], i32, ptr, ptr, ptr, %struct.PortioList, %struct.PortioList, i16, [10 x i16], i32, i32, i32, ptr, [2 x i32], i32, i8, i8, i32, i32, i32, i32, i32, i8, i8, i32, i32, i32, i32, i32, i8, i8, i8, i8, i8, i64, i32, ptr, i8, i8, i8, i8, i8, [64 x i32], i32, i32, ptr, ptr, [256 x i32], [16000 x i32], ptr, ptr, %union.vga_retrace, i8 }
%struct.PortioList = type { ptr, ptr, ptr, i32, ptr, ptr, ptr, i8 }
%union.vga_retrace = type { %struct.vga_precise_retrace }
%struct.vga_precise_retrace = type { i64, i64, i32, i32, i32, i32, i32, i32 }
%struct.qemu_edid_info = type { ptr, ptr, ptr, i16, i16, i32, i32, i32, i32, i32 }

@.str.3 = private unnamed_addr constant [8 x i8] c"pci-vga\00", align 1
@.str.7 = private unnamed_addr constant [7 x i8] c"device\00", align 1
@.str.8 = private unnamed_addr constant [101 x i8] c"/home/dtcxzyw/WorkSpace/Projects/compilers/llvm-opt-benchmark/bench/qemu/qemu/include/hw/qdev-core.h\00", align 1
@unassigned_io_ops = external constant %struct.MemoryRegionOps, align 8
@.str.17 = private unnamed_addr constant [9 x i8] c"vga.mmio\00", align 1
@.str.18 = private unnamed_addr constant [29 x i8] c"../qemu/hw/display/vga-pci.c\00", align 1
@__func__.PCI_VGA = private unnamed_addr constant [8 x i8] c"PCI_VGA\00", align 1
@__func__.DEVICE = private unnamed_addr constant [7 x i8] c"DEVICE\00", align 1

; Function Attrs: nounwind sspstrong uwtable
define internal void @pci_set_byte(ptr noundef %config, i8 noundef zeroext %val) #0 {
entry:
  %config.addr = alloca ptr, align 8
  %val.addr = alloca i8, align 1
  store ptr %config, ptr %config.addr, align 8
  store i8 %val, ptr %val.addr, align 1
  %0 = load i8, ptr %val.addr, align 1
  %1 = load ptr, ptr %config.addr, align 8
  store i8 %0, ptr %1, align 1
  ret void
}

; Function Attrs: nounwind sspstrong uwtable
define internal ptr @DEVICE(ptr noundef %obj) #0 {
entry:
  %obj.addr = alloca ptr, align 8
  store ptr %obj, ptr %obj.addr, align 8
  %0 = load ptr, ptr %obj.addr, align 8
  %call = call ptr @object_dynamic_cast_assert(ptr noundef %0, ptr noundef @.str.7, ptr noundef @.str.8, i32 noundef 77, ptr noundef @__func__.DEVICE)
  ret ptr %call
}

; Function Attrs: nounwind sspstrong uwtable
define internal ptr @PCI_VGA(ptr noundef %obj) #0 {
entry:
  %obj.addr = alloca ptr, align 8
  store ptr %obj, ptr %obj.addr, align 8
  %0 = load ptr, ptr %obj.addr, align 8
  %call = call ptr @object_dynamic_cast_assert(ptr noundef %0, ptr noundef @.str.3, ptr noundef @.str.18, i32 noundef 58, ptr noundef @__func__.PCI_VGA)
  ret ptr %call
}

; Function Attrs: nounwind sspstrong uwtable
define internal void @pci_secondary_vga_realize(ptr noundef %dev, ptr noundef %errp) #0 {
entry:
  %dev.addr = alloca ptr, align 8
  %errp.addr = alloca ptr, align 8
  %d = alloca ptr, align 8
  %s = alloca ptr, align 8
  %qext = alloca i8, align 1
  %edid = alloca i8, align 1
  store ptr %dev, ptr %dev.addr, align 8
  store ptr %errp, ptr %errp.addr, align 8
  %0 = load ptr, ptr %dev.addr, align 8
  %call = call ptr @PCI_VGA(ptr noundef %0)
  store ptr %call, ptr %d, align 8
  %1 = load ptr, ptr %d, align 8
  %vga = getelementptr inbounds %struct.PCIVGAState, ptr %1, i32 0, i32 1
  store ptr %vga, ptr %s, align 8
  store i8 0, ptr %qext, align 1
  store i8 0, ptr %edid, align 1
  %2 = load ptr, ptr %s, align 8
  %3 = load ptr, ptr %dev.addr, align 8
  %4 = load ptr, ptr %errp.addr, align 8
  %call1 = call zeroext i1 @vga_common_init(ptr noundef %2, ptr noundef %3, ptr noundef %4)
  br i1 %call1, label %if.end, label %if.then

if.then:                                          ; preds = %entry
  br label %return

if.end:                                           ; preds = %entry
  %5 = load ptr, ptr %dev.addr, align 8
  %call2 = call ptr @DEVICE(ptr noundef %5)
  %6 = load ptr, ptr %s, align 8
  %hw_ops = getelementptr inbounds %struct.VGACommonState, ptr %6, i32 0, i32 66
  %7 = load ptr, ptr %hw_ops, align 16
  %8 = load ptr, ptr %s, align 8
  %call3 = call ptr @graphic_console_init(ptr noundef %call2, i32 noundef 0, ptr noundef %7, ptr noundef %8)
  %9 = load ptr, ptr %s, align 8
  %con = getelementptr inbounds %struct.VGACommonState, ptr %9, i32 0, i32 42
  store ptr %call3, ptr %con, align 16
  %10 = load ptr, ptr %d, align 8
  %mmio = getelementptr inbounds %struct.PCIVGAState, ptr %10, i32 0, i32 4
  %11 = load ptr, ptr %dev.addr, align 8
  call void @memory_region_init_io(ptr noundef %mmio, ptr noundef %11, ptr noundef @unassigned_io_ops, ptr noundef null, ptr noundef @.str.17, i64 noundef 4096)
  %12 = load ptr, ptr %d, align 8
  %flags = getelementptr inbounds %struct.PCIVGAState, ptr %12, i32 0, i32 2
  %13 = load i32, ptr %flags, align 16
  %and = and i32 %13, 4
  %tobool = icmp ne i32 %and, 0
  br i1 %tobool, label %if.then4, label %if.end6

if.then4:                                         ; preds = %if.end
  store i8 1, ptr %qext, align 1
  %14 = load ptr, ptr %d, align 8
  %dev5 = getelementptr inbounds %struct.PCIVGAState, ptr %14, i32 0, i32 0
  %config = getelementptr inbounds %struct.PCIDevice, ptr %dev5, i32 0, i32 3
  %15 = load ptr, ptr %config, align 8
  %arrayidx = getelementptr i8, ptr %15, i64 8
  call void @pci_set_byte(ptr noundef %arrayidx, i8 noundef zeroext 2)
  br label %if.end6

if.end6:                                          ; preds = %if.then4, %if.end
  %16 = load ptr, ptr %d, align 8
  %flags7 = getelementptr inbounds %struct.PCIVGAState, ptr %16, i32 0, i32 2
  %17 = load i32, ptr %flags7, align 16
  %and8 = and i32 %17, 8
  %tobool9 = icmp ne i32 %and8, 0
  br i1 %tobool9, label %if.then10, label %if.end11

if.then10:                                        ; preds = %if.end6
  store i8 1, ptr %edid, align 1
  br label %if.end11

if.end11:                                         ; preds = %if.then10, %if.end6
  %18 = load ptr, ptr %s, align 8
  %19 = load ptr, ptr %dev.addr, align 8
  %20 = load ptr, ptr %d, align 8
  %mmio12 = getelementptr inbounds %struct.PCIVGAState, ptr %20, i32 0, i32 4
  %21 = load ptr, ptr %d, align 8
  %mrs = getelementptr inbounds %struct.PCIVGAState, ptr %21, i32 0, i32 5
  %arraydecay = getelementptr inbounds [4 x %struct.MemoryRegion], ptr %mrs, i64 0, i64 0
  %22 = load i8, ptr %qext, align 1
  %tobool13 = trunc i8 %22 to i1
  %23 = load i8, ptr %edid, align 1
  %tobool14 = trunc i8 %23 to i1
  call void @pci_std_vga_mmio_region_init(ptr noundef %18, ptr noundef %19, ptr noundef %mmio12, ptr noundef %arraydecay, i1 noundef zeroext %tobool13, i1 noundef zeroext %tobool14)
  %24 = load ptr, ptr %d, align 8
  %dev15 = getelementptr inbounds %struct.PCIVGAState, ptr %24, i32 0, i32 0
  %25 = load ptr, ptr %s, align 8
  %vram = getelementptr inbounds %struct.VGACommonState, ptr %25, i32 0, i32 2
  call void @pci_register_bar(ptr noundef %dev15, i32 noundef 0, i8 noundef zeroext 8, ptr noundef %vram)
  %26 = load ptr, ptr %d, align 8
  %dev16 = getelementptr inbounds %struct.PCIVGAState, ptr %26, i32 0, i32 0
  %27 = load ptr, ptr %d, align 8
  %mmio17 = getelementptr inbounds %struct.PCIVGAState, ptr %27, i32 0, i32 4
  call void @pci_register_bar(ptr noundef %dev16, i32 noundef 2, i8 noundef zeroext 0, ptr noundef %mmio17)
  br label %return

return:                                           ; preds = %if.end11, %if.then
  ret void
}