; Function Attrs: nounwind sspstrong uwtable
define internal void @pci_secondary_vga_realize(ptr noundef %dev, ptr noundef %errp) #0 {
entry:
  %call.i = tail call ptr @object_dynamic_cast_assert(ptr noundef %dev, ptr noundef nonnull @.str.3, ptr noundef nonnull @.str.18, i32 noundef 58, ptr noundef nonnull @__func__.PCI_VGA) #4
  %vga = getelementptr inbounds nuw i8, ptr %call.i, i64 2608
  %call1 = tail call zeroext i1 @vga_common_init(ptr noundef nonnull %vga, ptr noundef %dev, ptr noundef %errp) #4
  br i1 %call1, label %if.end, label %return

if.end:                                           ; preds = %entry
  %call.i19 = tail call ptr @object_dynamic_cast_assert(ptr noundef %dev, ptr noundef nonnull @.str.7, ptr noundef nonnull @.str.8, i32 noundef 77, ptr noundef nonnull @__func__.DEVICE) #4
  %hw_ops = getelementptr inbounds nuw i8, ptr %call.i, i64 5328
  %0 = load ptr, ptr %hw_ops, align 16
  %call3 = tail call ptr @graphic_console_init(ptr noundef %call.i19, i32 noundef 0, ptr noundef %0, ptr noundef nonnull %vga) #4
  %con = getelementptr inbounds nuw i8, ptr %call.i, i64 5232
  store ptr %call3, ptr %con, align 16
  %mmio = getelementptr inbounds nuw i8, ptr %call.i, i64 70784
  tail call void @memory_region_init_io(ptr noundef nonnull %mmio, ptr noundef %dev, ptr noundef nonnull @unassigned_io_ops, ptr noundef null, ptr noundef nonnull @.str.17, i64 noundef 4096) #4
  %flags = getelementptr inbounds nuw i8, ptr %call.i, i64 70720
  %1 = load i32, ptr %flags, align 16
  %and = and i32 %1, 4
  %tobool.not = icmp ne i32 %and, 0
  br i1 %tobool.not, label %if.then4, label %if.end6

if.then4:                                         ; preds = %if.end
  %config = getelementptr inbounds nuw i8, ptr %call.i, i64 168
  %2 = load ptr, ptr %config, align 8
  %arrayidx = getelementptr i8, ptr %2, i64 8
  store i8 2, ptr %arrayidx, align 1
  %.pre = load i32, ptr %flags, align 16
  br label %if.end6

if.end6:                                          ; preds = %if.then4, %if.end
  %3 = phi i32 [ %.pre, %if.then4 ], [ %1, %if.end ]
  %and8 = and i32 %3, 8
  %tobool9.not = icmp ne i32 %and8, 0
  %mrs = getelementptr inbounds nuw i8, ptr %call.i, i64 71056
  tail call void @pci_std_vga_mmio_region_init(ptr noundef nonnull %vga, ptr noundef %dev, ptr noundef nonnull %mmio, ptr noundef nonnull %mrs, i1 noundef zeroext %tobool.not, i1 noundef zeroext %tobool9.not)
  %vram = getelementptr inbounds nuw i8, ptr %call.i, i64 2624
  tail call void @pci_register_bar(ptr noundef nonnull %call.i, i32 noundef 0, i8 noundef zeroext 8, ptr noundef nonnull %vram) #4
  tail call void @pci_register_bar(ptr noundef nonnull %call.i, i32 noundef 2, i8 noundef zeroext 0, ptr noundef nonnull %mmio) #4
  br label %return

return:                                           ; preds = %entry, %if.end6
  ret void
}